target datalayout = "e-m:e-p270:32:32-p271:32:32-p272:64:64-i64:64-i128:128-f80:128-n8:16:32:64-S128"
target triple = "x86_64-pc-linux-gnu"

%"class.llvm::SmallVectorBase" = type { ptr, i32, i32 }
%"class.llvm::VPDef" = type { ptr, i8, [7 x i8], %"class.llvm::TinyPtrVector" }
%"class.llvm::TinyPtrVector" = type { %"class.llvm::PointerUnion" }
%"class.llvm::PointerUnion" = type { %"class.llvm::pointer_union_detail::PointerUnionMembers" }
%"class.llvm::pointer_union_detail::PointerUnionMembers" = type { %"class.llvm::pointer_union_detail::PointerUnionMembers.0" }
%"class.llvm::pointer_union_detail::PointerUnionMembers.0" = type { %"class.llvm::pointer_union_detail::PointerUnionMembers.1" }
%"class.llvm::pointer_union_detail::PointerUnionMembers.1" = type { %"class.llvm::PointerIntPair" }
%"class.llvm::PointerIntPair" = type { %"struct.llvm::detail::PunnedPointer" }
%"struct.llvm::detail::PunnedPointer" = type { [8 x i8] }
%"class.llvm::VPRecipeBase" = type { %"class.llvm::VPDef", %"class.llvm::ilist_node_with_parent", %"class.llvm::VPUser.base", ptr, %"class.llvm::DebugLoc" }
%"class.llvm::ilist_node_with_parent" = type { %"class.llvm::ilist_node" }
%"class.llvm::ilist_node" = type { %"class.llvm::ilist_node_impl" }
%"class.llvm::ilist_node_impl" = type { %"class.llvm::ilist_node_base" }
%"class.llvm::ilist_node_base" = type { %"class.llvm::ilist_detail::node_base_prevnext" }
%"class.llvm::ilist_detail::node_base_prevnext" = type { ptr, ptr }
%"class.llvm::VPUser.base" = type <{ ptr, %"class.llvm::SmallVector", i32 }>
%"class.llvm::SmallVector" = type { %"class.llvm::SmallVectorImpl", %"struct.llvm::SmallVectorStorage" }
%"class.llvm::SmallVectorImpl" = type { %"class.llvm::SmallVectorTemplateBase" }
%"class.llvm::SmallVectorTemplateBase" = type { %"class.llvm::SmallVectorTemplateCommon" }
%"class.llvm::SmallVectorTemplateCommon" = type { %"class.llvm::SmallVectorBase" }
%"struct.llvm::SmallVectorStorage" = type { [16 x i8] }
%"class.llvm::DebugLoc" = type { %"class.llvm::TypedTrackingMDRef" }
%"class.llvm::TypedTrackingMDRef" = type { %"class.llvm::TrackingMDRef" }
%"class.llvm::TrackingMDRef" = type { ptr }
%"class.std::__cxx11::basic_string" = type { %"struct.std::__cxx11::basic_string<char>::_Alloc_hider", i64, %union.anon.21 }
%"struct.std::__cxx11::basic_string<char>::_Alloc_hider" = type { ptr }
%union.anon.21 = type { i64, [8 x i8] }
%"class.llvm::VPBlockBase" = type { ptr, i8, %"class.std::__cxx11::basic_string", ptr, %"class.llvm::SmallVector.55", %"class.llvm::SmallVector.55", ptr }
%"class.llvm::SmallVector.55" = type { %"class.llvm::SmallVectorImpl.56", %"struct.llvm::SmallVectorStorage.59" }
%"class.llvm::SmallVectorImpl.56" = type { %"class.llvm::SmallVectorTemplateBase.57" }
%"class.llvm::SmallVectorTemplateBase.57" = type { %"class.llvm::SmallVectorTemplateCommon.58" }
%"class.llvm::SmallVectorTemplateCommon.58" = type { %"class.llvm::SmallVectorBase" }
%"struct.llvm::SmallVectorStorage.59" = type { [8 x i8] }
%"class.llvm::ilist_iterator" = type { ptr }
%"class.llvm::VPBasicBlock" = type { %"class.llvm::VPBlockBase", %"class.llvm::iplist" }
%"class.llvm::iplist" = type { %"class.llvm::iplist_impl.60" }
%"class.llvm::iplist_impl.60" = type { %"class.llvm::simple_ilist.62" }
%"class.llvm::simple_ilist.62" = type { %"class.llvm::ilist_sentinel.64" }
%"class.llvm::ilist_sentinel.64" = type { %"class.llvm::ilist_node_impl" }

; Function Attrs: mustprogress nounwind uwtable
define linkonce_odr hidden void @_ZN4llvm12ilist_detail18node_base_prevnextINS_15ilist_node_baseILb0EvEELb0EE7setNextEPS3_(ptr noundef nonnull align 8 dereferenceable(16) %0, ptr noundef %1) #0 comdat align 2 {
  %3 = alloca ptr, align 8
  %4 = alloca ptr, align 8
  store ptr %0, ptr %3, align 8
  store ptr %1, ptr %4, align 8
  %5 = load ptr, ptr %3, align 8
  %6 = load ptr, ptr %4, align 8
  %7 = getelementptr inbounds nuw %"class.llvm::ilist_detail::node_base_prevnext", ptr %5, i32 0, i32 1
  store ptr %6, ptr %7, align 8
  ret void
}

; Function Attrs: mustprogress nounwind uwtable
define linkonce_odr hidden void @_ZN4llvm12ilist_detail18node_base_prevnextINS_15ilist_node_baseILb0EvEELb0EE7setPrevEPS3_(ptr noundef nonnull align 8 dereferenceable(16) %0, ptr noundef %1) #0 comdat align 2 {
  %3 = alloca ptr, align 8
  %4 = alloca ptr, align 8
  store ptr %0, ptr %3, align 8
  store ptr %1, ptr %4, align 8
  %5 = load ptr, ptr %3, align 8
  %6 = load ptr, ptr %4, align 8
  %7 = getelementptr inbounds nuw %"class.llvm::ilist_detail::node_base_prevnext", ptr %5, i32 0, i32 0
  store ptr %6, ptr %7, align 8
  ret void
}

; Function Attrs: mustprogress nounwind uwtable
define linkonce_odr hidden noundef ptr @_ZNK4llvm12ilist_detail18node_base_prevnextINS_15ilist_node_baseILb0EvEELb0EE7getPrevEv(ptr noundef nonnull align 8 dereferenceable(16) %0) #0 comdat align 2 {
  %2 = alloca ptr, align 8
  store ptr %0, ptr %2, align 8
  %3 = load ptr, ptr %2, align 8
  %4 = getelementptr inbounds nuw %"class.llvm::ilist_detail::node_base_prevnext", ptr %3, i32 0, i32 0
  %5 = load ptr, ptr %4, align 8
  ret ptr %5
}

; Function Attrs: mustprogress nounwind uwtable
define linkonce_odr hidden noundef ptr @_ZNK4llvm12ilist_detail18node_base_prevnextINS_15ilist_node_baseILb0EvEELb0EE7getNextEv(ptr noundef nonnull align 8 dereferenceable(16) %0) #0 comdat align 2 {
  %2 = alloca ptr, align 8
  store ptr %0, ptr %2, align 8
  %3 = load ptr, ptr %2, align 8
  %4 = getelementptr inbounds nuw %"class.llvm::ilist_detail::node_base_prevnext", ptr %3, i32 0, i32 1
  %5 = load ptr, ptr %4, align 8
  ret ptr %5
}

; Function Attrs: mustprogress nounwind uwtable
define linkonce_odr hidden void @_ZN4llvm10ilist_baseILb0EvE10removeImplERNS_15ilist_node_baseILb0EvEE(ptr noundef nonnull align 8 dereferenceable(16) %0) #0 comdat align 2 {
  %2 = alloca ptr, align 8
  %3 = alloca ptr, align 8
  %4 = alloca ptr, align 8
  store ptr %0, ptr %2, align 8
  %5 = load ptr, ptr %2, align 8
  %6 = call noundef ptr @_ZNK4llvm12ilist_detail18node_base_prevnextINS_15ilist_node_baseILb0EvEELb0EE7getPrevEv(ptr noundef nonnull align 8 dereferenceable(16) %5)
  store ptr %6, ptr %3, align 8
  %7 = load ptr, ptr %2, align 8
  %8 = call noundef ptr @_ZNK4llvm12ilist_detail18node_base_prevnextINS_15ilist_node_baseILb0EvEELb0EE7getNextEv(ptr noundef nonnull align 8 dereferenceable(16) %7)
  store ptr %8, ptr %4, align 8
  %9 = load ptr, ptr %4, align 8
  %10 = load ptr, ptr %3, align 8
  call void @_ZN4llvm12ilist_detail18node_base_prevnextINS_15ilist_node_baseILb0EvEELb0EE7setPrevEPS3_(ptr noundef nonnull align 8 dereferenceable(16) %9, ptr noundef %10)
  %11 = load ptr, ptr %3, align 8
  %12 = load ptr, ptr %4, align 8
  call void @_ZN4llvm12ilist_detail18node_base_prevnextINS_15ilist_node_baseILb0EvEELb0EE7setNextEPS3_(ptr noundef nonnull align 8 dereferenceable(16) %11, ptr noundef %12)
  %13 = load ptr, ptr %2, align 8
  call void @_ZN4llvm12ilist_detail18node_base_prevnextINS_15ilist_node_baseILb0EvEELb0EE7setPrevEPS3_(ptr noundef nonnull align 8 dereferenceable(16) %13, ptr noundef null)
  %14 = load ptr, ptr %2, align 8
  call void @_ZN4llvm12ilist_detail18node_base_prevnextINS_15ilist_node_baseILb0EvEELb0EE7setNextEPS3_(ptr noundef nonnull align 8 dereferenceable(16) %14, ptr noundef null)
  ret void
}

; Function Attrs: mustprogress nounwind uwtable
define linkonce_odr hidden noundef ptr @_ZN4llvm12ilist_detail10NodeAccess10getNodePtrINS0_12node_optionsINS_12VPRecipeBaseELb0ELb0EvLb0EvEEEEPNS_15ilist_node_implIT_EENS7_7pointerE(ptr noundef %0) #0 comdat align 2 {
  %2 = alloca ptr, align 8
  store ptr %0, ptr %2, align 8
  %3 = load ptr, ptr %2, align 8
  %4 = icmp eq ptr %3, null
  br i1 %4, label %7, label %5

5:                                                ; preds = %1
  %6 = getelementptr inbounds i8, ptr %3, i64 24
  br label %7

7:                                                ; preds = %5, %1
  %8 = phi ptr [ %6, %5 ], [ null, %1 ]
  ret ptr %8
}

; Function Attrs: mustprogress nounwind uwtable
define linkonce_odr hidden noundef ptr @_ZN4llvm12ilist_detail10NodeAccess11getValuePtrINS0_12node_optionsINS_12VPRecipeBaseELb0ELb0EvLb0EvEEEENT_7pointerEPNS_15ilist_node_implIS6_EE(ptr noundef %0) #0 comdat align 2 {
  %2 = alloca ptr, align 8
  store ptr %0, ptr %2, align 8
  %3 = load ptr, ptr %2, align 8
  %4 = icmp eq ptr %3, null
  br i1 %4, label %7, label %5

5:                                                ; preds = %1
  %6 = getelementptr inbounds i8, ptr %3, i64 -24
  br label %8

7:                                                ; preds = %1
  br label %8

8:                                                ; preds = %7, %5
  %9 = phi ptr [ %6, %5 ], [ null, %7 ]
  ret ptr %9
}

; Function Attrs: mustprogress nounwind uwtable
define linkonce_odr hidden noundef ptr @_ZN4llvm15ilist_node_implINS_12ilist_detail12node_optionsINS_12VPRecipeBaseELb0ELb0EvLb0EvEEE7getNextEv(ptr noundef nonnull align 8 dereferenceable(16) %0) #0 comdat align 2 {
  %2 = alloca ptr, align 8
  store ptr %0, ptr %2, align 8
  %3 = load ptr, ptr %2, align 8
  %4 = call noundef ptr @_ZNK4llvm12ilist_detail18node_base_prevnextINS_15ilist_node_baseILb0EvEELb0EE7getNextEv(ptr noundef nonnull align 8 dereferenceable(16) %3)
  ret ptr %4
}

; Function Attrs: mustprogress nounwind uwtable
define linkonce_odr hidden void @_ZN4llvm10ilist_baseILb0EvE6removeINS_15ilist_node_implINS_12ilist_detail12node_optionsINS_12VPRecipeBaseELb0ELb0EvLb0EvEEEEEEvRT_(ptr noundef nonnull align 8 dereferenceable(16) %0) #0 comdat align 2 {
  %2 = alloca ptr, align 8
  store ptr %0, ptr %2, align 8
  %3 = load ptr, ptr %2, align 8
  call void @_ZN4llvm10ilist_baseILb0EvE10removeImplERNS_15ilist_node_baseILb0EvEE(ptr noundef nonnull align 8 dereferenceable(16) %3)
  ret void
}

; Function Attrs: mustprogress nounwind uwtable
define linkonce_odr hidden noundef ptr @_ZN4llvm12ilist_detail18SpecificNodeAccessINS0_12node_optionsINS_12VPRecipeBaseELb0ELb0EvLb0EvEEE10getNodePtrEPS3_(ptr noundef %0) #0 comdat align 2 {
  %2 = alloca ptr, align 8
  store ptr %0, ptr %2, align 8
  %3 = load ptr, ptr %2, align 8
  %4 = call noundef ptr @_ZN4llvm12ilist_detail10NodeAccess10getNodePtrINS0_12node_optionsINS_12VPRecipeBaseELb0ELb0EvLb0EvEEEEPNS_15ilist_node_implIT_EENS7_7pointerE(ptr noundef %3)
  ret ptr %4
}

; Function Attrs: mustprogress nounwind uwtable
define linkonce_odr hidden noundef ptr @_ZN4llvm12ilist_detail18SpecificNodeAccessINS0_12node_optionsINS_12VPRecipeBaseELb0ELb0EvLb0EvEEE11getValuePtrEPNS_15ilist_node_implIS4_EE(ptr noundef %0) #0 comdat align 2 {
  %2 = alloca ptr, align 8
  store ptr %0, ptr %2, align 8
  %3 = load ptr, ptr %2, align 8
  %4 = call noundef ptr @_ZN4llvm12ilist_detail10NodeAccess11getValuePtrINS0_12node_optionsINS_12VPRecipeBaseELb0ELb0EvLb0EvEEEENT_7pointerEPNS_15ilist_node_implIS6_EE(ptr noundef %3)
  ret ptr %4
}

; Function Attrs: mustprogress nounwind uwtable
define linkonce_odr hidden noundef nonnull align 8 dereferenceable(8) ptr @_ZN4llvm14ilist_iteratorINS_12ilist_detail12node_optionsINS_12VPRecipeBaseELb0ELb0EvLb0EvEELb0ELb0EEppEv(ptr noundef nonnull align 8 dereferenceable(8) %0) #0 comdat align 2 {
  %2 = alloca ptr, align 8
  store ptr %0, ptr %2, align 8
  %3 = load ptr, ptr %2, align 8
  %4 = getelementptr inbounds nuw %"class.llvm::ilist_iterator", ptr %3, i32 0, i32 0
  %5 = load ptr, ptr %4, align 8
  %6 = call noundef ptr @_ZN4llvm15ilist_node_implINS_12ilist_detail12node_optionsINS_12VPRecipeBaseELb0ELb0EvLb0EvEEE7getNextEv(ptr noundef nonnull align 8 dereferenceable(16) %5)
  %7 = getelementptr inbounds nuw %"class.llvm::ilist_iterator", ptr %3, i32 0, i32 0
  store ptr %6, ptr %7, align 8
  ret ptr %3
}

; Function Attrs: mustprogress nounwind uwtable
define linkonce_odr hidden void @_ZN4llvm12simple_ilistINS_12VPRecipeBaseEJEE6removeERS1_(ptr noundef nonnull align 8 dereferenceable(16) %0, ptr noundef nonnull align 8 dereferenceable(104) %1) #0 comdat align 2 {
  %3 = alloca ptr, align 8
  %4 = alloca ptr, align 8
  store ptr %0, ptr %3, align 8
  store ptr %1, ptr %4, align 8
  %5 = load ptr, ptr %4, align 8
  %6 = call noundef ptr @_ZN4llvm12ilist_detail18SpecificNodeAccessINS0_12node_optionsINS_12VPRecipeBaseELb0ELb0EvLb0EvEEE10getNodePtrEPS3_(ptr noundef %5)
  call void @_ZN4llvm10ilist_baseILb0EvE6removeINS_15ilist_node_implINS_12ilist_detail12node_optionsINS_12VPRecipeBaseELb0ELb0EvLb0EvEEEEEEvRT_(ptr noundef nonnull align 8 dereferenceable(16) %6)
  ret void
}

; Function Attrs: mustprogress nounwind uwtable
define linkonce_odr hidden void @_ZN4llvm21ilist_callback_traitsINS_12VPRecipeBaseEE18removeNodeFromListEPS1_(ptr noundef nonnull align 1 dereferenceable(1) %0, ptr noundef %1) #0 comdat align 2 {
  %3 = alloca ptr, align 8
  %4 = alloca ptr, align 8
  store ptr %0, ptr %3, align 8
  store ptr %1, ptr %4, align 8
  ret void
}

; Function Attrs: mustprogress nounwind uwtable
define linkonce_odr hidden noundef nonnull align 8 dereferenceable(104) ptr @_ZNK4llvm14ilist_iteratorINS_12ilist_detail12node_optionsINS_12VPRecipeBaseELb0ELb0EvLb0EvEELb0ELb0EEdeEv(ptr noundef nonnull align 8 dereferenceable(8) %0) #0 comdat align 2 {
  %2 = alloca ptr, align 8
  store ptr %0, ptr %2, align 8
  %3 = load ptr, ptr %2, align 8
  %4 = getelementptr inbounds nuw %"class.llvm::ilist_iterator", ptr %3, i32 0, i32 0
  %5 = load ptr, ptr %4, align 8
  %6 = call noundef ptr @_ZN4llvm12ilist_detail18SpecificNodeAccessINS0_12node_optionsINS_12VPRecipeBaseELb0ELb0EvLb0EvEEE11getValuePtrEPNS_15ilist_node_implIS4_EE(ptr noundef %5)
  ret ptr %6
}

; Function Attrs: mustprogress nounwind uwtable
define linkonce_odr hidden ptr @_ZN4llvm14ilist_iteratorINS_12ilist_detail12node_optionsINS_12VPRecipeBaseELb0ELb0EvLb0EvEELb0ELb0EEppEi(ptr noundef nonnull align 8 dereferenceable(8) %0, i32 noundef %1) #0 comdat align 2 {
  %3 = alloca %"class.llvm::ilist_iterator", align 8
  %4 = alloca ptr, align 8
  %5 = alloca i32, align 4
  store ptr %0, ptr %4, align 8
  store i32 %1, ptr %5, align 4
  %6 = load ptr, ptr %4, align 8
  call void @llvm.memcpy.p0.p0.i64(ptr align 8 %3, ptr align 8 %6, i64 8, i1 false)
  %7 = call noundef nonnull align 8 dereferenceable(8) ptr @_ZN4llvm14ilist_iteratorINS_12ilist_detail12node_optionsINS_12VPRecipeBaseELb0ELb0EvLb0EvEELb0ELb0EEppEv(ptr noundef nonnull align 8 dereferenceable(8) %6)
  %8 = getelementptr inbounds nuw %"class.llvm::ilist_iterator", ptr %3, i32 0, i32 0
  %9 = load ptr, ptr %8, align 8
  ret ptr %9
}

; Function Attrs: mustprogress nounwind uwtable
define linkonce_odr hidden void @_ZN4llvm18ilist_alloc_traitsINS_12VPRecipeBaseEE10deleteNodeEPS1_(ptr noundef %0) #0 comdat align 2 {
  %2 = alloca ptr, align 8
  store ptr %0, ptr %2, align 8
  %3 = load ptr, ptr %2, align 8
  %4 = icmp eq ptr %3, null
  br i1 %4, label %9, label %5

5:                                                ; preds = %1
  %6 = load ptr, ptr %3, align 8
  %7 = getelementptr inbounds ptr, ptr %6, i64 1
  %8 = load ptr, ptr %7, align 8
  call void %8(ptr noundef nonnull align 8 dereferenceable(104) %3) #13
  br label %9

9:                                                ; preds = %5, %1
  ret void
}

; Function Attrs: mustprogress nounwind uwtable
define linkonce_odr hidden noundef ptr @_ZN4llvm11iplist_implINS_12simple_ilistINS_12VPRecipeBaseEJEEENS_12ilist_traitsIS2_EEE6removeERNS_14ilist_iteratorINS_12ilist_detail12node_optionsIS2_Lb0ELb0EvLb0EvEELb0ELb0EEE(ptr noundef nonnull align 8 dereferenceable(16) %0, ptr noundef nonnull align 8 dereferenceable(8) %1) #0 comdat align 2 {
  %3 = alloca ptr, align 8
  %4 = alloca ptr, align 8
  %5 = alloca ptr, align 8
  %6 = alloca %"class.llvm::ilist_iterator", align 8
  store ptr %0, ptr %3, align 8
  store ptr %1, ptr %4, align 8
  %7 = load ptr, ptr %3, align 8
  %8 = load ptr, ptr %4, align 8
  %9 = call ptr @_ZN4llvm14ilist_iteratorINS_12ilist_detail12node_optionsINS_12VPRecipeBaseELb0ELb0EvLb0EvEELb0ELb0EEppEi(ptr noundef nonnull align 8 dereferenceable(8) %8, i32 noundef 0)
  %10 = getelementptr inbounds nuw %"class.llvm::ilist_iterator", ptr %6, i32 0, i32 0
  store ptr %9, ptr %10, align 8
  %11 = call noundef nonnull align 8 dereferenceable(104) ptr @_ZNK4llvm14ilist_iteratorINS_12ilist_detail12node_optionsINS_12VPRecipeBaseELb0ELb0EvLb0EvEELb0ELb0EEdeEv(ptr noundef nonnull align 8 dereferenceable(8) %6)
  store ptr %11, ptr %5, align 8
  %12 = load ptr, ptr %5, align 8
  call void @_ZN4llvm21ilist_callback_traitsINS_12VPRecipeBaseEE18removeNodeFromListEPS1_(ptr noundef nonnull align 1 dereferenceable(1) %7, ptr noundef %12)
  %13 = load ptr, ptr %5, align 8
  call void @_ZN4llvm12simple_ilistINS_12VPRecipeBaseEJEE6removeERS1_(ptr noundef nonnull align 8 dereferenceable(16) %7, ptr noundef nonnull align 8 dereferenceable(104) %13)
  %14 = load ptr, ptr %5, align 8
  ret ptr %14
}

; Function Attrs: mustprogress nounwind uwtable
define linkonce_odr hidden void @_ZN4llvm14ilist_iteratorINS_12ilist_detail12node_optionsINS_12VPRecipeBaseELb0ELb0EvLb0EvEELb0ELb0EEC2ERNS_15ilist_node_implIS4_EE(ptr noundef nonnull align 8 dereferenceable(8) %0, ptr noundef nonnull align 8 dereferenceable(16) %1) unnamed_addr #0 comdat align 2 {
  %3 = alloca ptr, align 8
  %4 = alloca ptr, align 8
  store ptr %0, ptr %3, align 8
  store ptr %1, ptr %4, align 8
  %5 = load ptr, ptr %3, align 8
  %6 = getelementptr inbounds nuw %"class.llvm::ilist_iterator", ptr %5, i32 0, i32 0
  %7 = load ptr, ptr %4, align 8
  store ptr %7, ptr %6, align 8
  ret void
}

; Function Attrs: mustprogress nounwind uwtable
define linkonce_odr hidden ptr @_ZN4llvm11iplist_implINS_12simple_ilistINS_12VPRecipeBaseEJEEENS_12ilist_traitsIS2_EEE5eraseENS_14ilist_iteratorINS_12ilist_detail12node_optionsIS2_Lb0ELb0EvLb0EvEELb0ELb0EEE(ptr noundef nonnull align 8 dereferenceable(16) %0, ptr %1) #0 comdat align 2 {
  %3 = alloca %"class.llvm::ilist_iterator", align 8
  %4 = alloca %"class.llvm::ilist_iterator", align 8
  %5 = alloca ptr, align 8
  %6 = getelementptr inbounds nuw %"class.llvm::ilist_iterator", ptr %4, i32 0, i32 0
  store ptr %1, ptr %6, align 8
  store ptr %0, ptr %5, align 8
  %7 = load ptr, ptr %5, align 8
  %8 = call noundef ptr @_ZN4llvm11iplist_implINS_12simple_ilistINS_12VPRecipeBaseEJEEENS_12ilist_traitsIS2_EEE6removeERNS_14ilist_iteratorINS_12ilist_detail12node_optionsIS2_Lb0ELb0EvLb0EvEELb0ELb0EEE(ptr noundef nonnull align 8 dereferenceable(16) %7, ptr noundef nonnull align 8 dereferenceable(8) %4)
  call void @_ZN4llvm18ilist_alloc_traitsINS_12VPRecipeBaseEE10deleteNodeEPS1_(ptr noundef %8)
  call void @llvm.memcpy.p0.p0.i64(ptr align 8 %3, ptr align 8 %4, i64 8, i1 false)
  %9 = getelementptr inbounds nuw %"class.llvm::ilist_iterator", ptr %3, i32 0, i32 0
  %10 = load ptr, ptr %9, align 8
  ret ptr %10
}

; Function Attrs: mustprogress nounwind uwtable
define linkonce_odr hidden ptr @_ZN4llvm15ilist_node_implINS_12ilist_detail12node_optionsINS_12VPRecipeBaseELb0ELb0EvLb0EvEEE11getIteratorEv(ptr noundef nonnull align 8 dereferenceable(16) %0) #0 comdat align 2 {
  %2 = alloca %"class.llvm::ilist_iterator", align 8
  %3 = alloca ptr, align 8
  store ptr %0, ptr %3, align 8
  %4 = load ptr, ptr %3, align 8
  call void @_ZN4llvm14ilist_iteratorINS_12ilist_detail12node_optionsINS_12VPRecipeBaseELb0ELb0EvLb0EvEELb0ELb0EEC2ERNS_15ilist_node_implIS4_EE(ptr noundef nonnull align 8 dereferenceable(8) %2, ptr noundef nonnull align 8 dereferenceable(16) %4)
  %5 = getelementptr inbounds nuw %"class.llvm::ilist_iterator", ptr %2, i32 0, i32 0
  %6 = load ptr, ptr %5, align 8
  ret ptr %6
}

; Function Attrs: mustprogress nounwind uwtable
define linkonce_odr hidden noundef nonnull align 8 dereferenceable(16) ptr @_ZN4llvm12VPBasicBlock13getRecipeListEv(ptr noundef nonnull align 8 dereferenceable(128) %0) #0 comdat align 2 {
  %2 = alloca ptr, align 8
  store ptr %0, ptr %2, align 8
  %3 = load ptr, ptr %2, align 8
  %4 = getelementptr inbounds nuw %"class.llvm::VPBasicBlock", ptr %3, i32 0, i32 1
  ret ptr %4
}

; Function Attrs: mustprogress nounwind uwtable
define linkonce_odr hidden noundef ptr @_ZN4llvm12VPRecipeBase9getParentEv(ptr noundef nonnull align 8 dereferenceable(104) %0) #0 comdat align 2 {
  %2 = alloca ptr, align 8
  store ptr %0, ptr %2, align 8
  %3 = load ptr, ptr %2, align 8
  %4 = getelementptr inbounds nuw %"class.llvm::VPRecipeBase", ptr %3, i32 0, i32 3
  %5 = load ptr, ptr %4, align 8
  ret ptr %5
}

; Function Attrs: mustprogress nounwind uwtable
define dso_local ptr @_ZN4llvm12VPRecipeBase15eraseFromParentEv(ptr noundef nonnull align 8 dereferenceable(104) %0) #0 align 2 {
  %2 = alloca %"class.llvm::ilist_iterator", align 8
  %3 = alloca ptr, align 8
  %4 = alloca %"class.llvm::ilist_iterator", align 8
  store ptr %0, ptr %3, align 8
  %5 = load ptr, ptr %3, align 8
  %6 = call noundef ptr @_ZN4llvm12VPRecipeBase9getParentEv(ptr noundef nonnull align 8 dereferenceable(104) %5)
  %7 = call noundef nonnull align 8 dereferenceable(16) ptr @_ZN4llvm12VPBasicBlock13getRecipeListEv(ptr noundef nonnull align 8 dereferenceable(128) %6)
  %8 = getelementptr inbounds i8, ptr %5, i64 24
  %9 = call ptr @_ZN4llvm15ilist_node_implINS_12ilist_detail12node_optionsINS_12VPRecipeBaseELb0ELb0EvLb0EvEEE11getIteratorEv(ptr noundef nonnull align 8 dereferenceable(16) %8)
  %10 = getelementptr inbounds nuw %"class.llvm::ilist_iterator", ptr %4, i32 0, i32 0
  store ptr %9, ptr %10, align 8
  %11 = getelementptr inbounds nuw %"class.llvm::ilist_iterator", ptr %4, i32 0, i32 0
  %12 = load ptr, ptr %11, align 8
  %13 = call ptr @_ZN4llvm11iplist_implINS_12simple_ilistINS_12VPRecipeBaseEJEEENS_12ilist_traitsIS2_EEE5eraseENS_14ilist_iteratorINS_12ilist_detail12node_optionsIS2_Lb0ELb0EvLb0EvEELb0ELb0EEE(ptr noundef nonnull align 8 dereferenceable(16) %7, ptr %12)
  %14 = getelementptr inbounds nuw %"class.llvm::ilist_iterator", ptr %2, i32 0, i32 0
  store ptr %13, ptr %14, align 8
  %15 = getelementptr inbounds nuw %"class.llvm::ilist_iterator", ptr %2, i32 0, i32 0
  %16 = load ptr, ptr %15, align 8
  ret ptr %16
}